target datalayout = "e-m:e-p270:32:32-p271:32:32-p272:64:64-i64:64-i128:128-f80:128-n8:16:32:64-S128"
target triple = "x86_64-pc-linux-gnu"

@bio_err = external global ptr, align 8
@psk_key = internal global ptr null, align 8
@.str.266 = private unnamed_addr constant [16 x i8] c"Client_identity\00", align 1
@.str.270 = private unnamed_addr constant [46 x i8] c"server: PSK error: client identity not found\0A\00", align 1

; Function Attrs: nounwind uwtable
define internal i32 @psk_server_callback(ptr noundef %0, ptr noundef %1, ptr noundef %2, i32 noundef %3) #0 {
  %5 = alloca i32, align 4
  %6 = alloca ptr, align 8
  %7 = alloca ptr, align 8
  %8 = alloca ptr, align 8
  %9 = alloca i32, align 4
  %10 = alloca i32, align 4
  %11 = alloca i32, align 4
  store ptr %0, ptr %6, align 8, !tbaa !17
  store ptr %1, ptr %7, align 8, !tbaa !11
  store ptr %2, ptr %8, align 8, !tbaa !11
  store i32 %3, ptr %9, align 4, !tbaa !4
  call void @llvm.lifetime.start.p0(i64 4, ptr %10) #10
  store i32 0, ptr %10, align 4, !tbaa !4
  %12 = load ptr, ptr %7, align 8, !tbaa !11
  %13 = call i32 @strcmp(ptr noundef %12, ptr noundef @.str.266) #11
  %14 = icmp ne i32 %13, 0
  br i1 %14, label %15, label %18

15:                                               ; preds = %4
  %16 = load ptr, ptr @bio_err, align 8, !tbaa !35
  %17 = call i32 (ptr, ptr, ...) @BIO_printf(ptr noundef %16, ptr noundef @.str.270)
  store i32 0, ptr %5, align 4
  store i32 1, ptr %11, align 4
  br label %24

18:                                               ; preds = %4
  %19 = load ptr, ptr @psk_key, align 8, !tbaa !11
  %20 = load ptr, ptr %8, align 8, !tbaa !11
  %21 = load i32, ptr %9, align 4, !tbaa !4
  %22 = call i32 @psk_key2bn(ptr noundef %19, ptr noundef %20, i32 noundef %21)
  store i32 %22, ptr %10, align 4, !tbaa !4
  %23 = load i32, ptr %10, align 4, !tbaa !4
  store i32 %23, ptr %5, align 4
  store i32 1, ptr %11, align 4
  br label %24

24:                                               ; preds = %18, %15
  call void @llvm.lifetime.end.p0(i64 4, ptr %10) #10
  %25 = load i32, ptr %5, align 4
  ret i32 %25
}