; Function Attrs: nounwind uwtable
define internal i32 @psk_server_callback(ptr readnone captures(none) %0, ptr noundef readonly captures(none) %1, ptr noundef %2, i32 noundef %3) #7 {
  %5 = tail call i32 @strcmp(ptr noundef nonnull dereferenceable(1) %1, ptr noundef nonnull dereferenceable(16) @.str.266) #25
  %.not = icmp eq i32 %5, 0
  br i1 %.not, label %9, label %6

6:                                                ; preds = %4
  %7 = load ptr, ptr @bio_err, align 8, !tbaa !19
  %8 = tail call i32 (ptr, ptr, ...) @BIO_printf(ptr noundef %7, ptr noundef nonnull @.str.270) #23
  br label %12

9:                                                ; preds = %4
  %10 = load ptr, ptr @psk_key, align 8, !tbaa !21
  %11 = tail call fastcc i32 @psk_key2bn(ptr noundef %10, ptr noundef %2, i32 noundef %3)
  br label %12

12:                                               ; preds = %9, %6
  %.0 = phi i32 [ 0, %6 ], [ %11, %9 ]
  ret i32 %.0
}